; ModuleID = '45/1433.c'
source_filename = "45/1433.c"
target datalayout = "e-m:e-p270:32:32-p271:32:32-p272:64:64-i64:64-f80:128-n8:16:32:64-S128"
target triple = "x86_64-pc-linux-gnu"

@.str = private unnamed_addr constant [5 x i8] c"%s%s\00", align 1
@.str.1 = private unnamed_addr constant [3 x i8] c"%d\00", align 1

; Function Attrs: noinline nounwind uwtable
define dso_local i32 @pd(i8* %0, i32 %1, i8* %2) #0 {
  %4 = alloca i8*, align 8
  %5 = alloca i32, align 4
  %6 = alloca i8*, align 8
  %7 = alloca i32, align 4
  %8 = alloca i32, align 4
  store i8* %0, i8** %4, align 8
  store i32 %1, i32* %5, align 4
  store i8* %2, i8** %6, align 8
  store i32 1, i32* %8, align 4
  store i32 0, i32* %7, align 4
  br label %9

9:                                                ; preds = %29, %3
  %10 = load i32, i32* %7, align 4
  %11 = load i32, i32* %5, align 4
  %12 = icmp slt i32 %10, %11
  br i1 %12, label %13, label %32

13:                                               ; preds = %9
  %14 = load i8*, i8** %6, align 8
  %15 = load i32, i32* %7, align 4
  %16 = sext i32 %15 to i64
  %17 = getelementptr inbounds i8, i8* %14, i64 %16
  %18 = load i8, i8* %17, align 1
  %19 = sext i8 %18 to i32
  %20 = load i8*, i8** %4, align 8
  %21 = load i32, i32* %7, align 4
  %22 = sext i32 %21 to i64
  %23 = getelementptr inbounds i8, i8* %20, i64 %22
  %24 = load i8, i8* %23, align 1
  %25 = sext i8 %24 to i32
  %26 = icmp ne i32 %19, %25
  br i1 %26, label %27, label %28

27:                                               ; preds = %13
  store i32 0, i32* %8, align 4
  br label %32

28:                                               ; preds = %13
  br label %29

29:                                               ; preds = %28
  %30 = load i32, i32* %7, align 4
  %31 = add nsw i32 %30, 1
  store i32 %31, i32* %7, align 4
  br label %9

32:                                               ; preds = %27, %9
  %33 = load i32, i32* %8, align 4
  ret i32 %33
}

; Function Attrs: noinline nounwind uwtable
define dso_local i32 @main() #0 {
  %1 = alloca i32, align 4
  %2 = alloca i32, align 4
  %3 = alloca i32, align 4
  %4 = alloca i32, align 4
  %5 = alloca i32, align 4
  %6 = alloca i32, align 4
  %7 = alloca i32, align 4
  %8 = alloca [50 x i8], align 16
  %9 = alloca [50 x i8], align 16
  %10 = alloca i8*, align 8
  store i32 0, i32* %1, align 4
  %11 = getelementptr inbounds [50 x i8], [50 x i8]* %8, i64 0, i64 0
  %12 = getelementptr inbounds [50 x i8], [50 x i8]* %9, i64 0, i64 0
  %13 = call i32 (i8*, ...) @__isoc99_scanf(i8* getelementptr inbounds ([5 x i8], [5 x i8]* @.str, i64 0, i64 0), i8* %11, i8* %12)
  %14 = getelementptr inbounds [50 x i8], [50 x i8]* %9, i64 0, i64 0
  store i8* %14, i8** %10, align 8
  %15 = getelementptr inbounds [50 x i8], [50 x i8]* %9, i64 0, i64 0
  %16 = call i64 @strlen(i8* %15) #3
  %17 = trunc i64 %16 to i32
  store i32 %17, i32* %7, align 4
  %18 = getelementptr inbounds [50 x i8], [50 x i8]* %8, i64 0, i64 0
  %19 = call i64 @strlen(i8* %18) #3
  %20 = trunc i64 %19 to i32
  store i32 %20, i32* %6, align 4
  store i32 0, i32* %3, align 4
  br label %21

21:                                               ; preds = %38, %0
  %22 = load i32, i32* %3, align 4
  %23 = load i32, i32* %7, align 4
  %24 = icmp slt i32 %22, %23
  br i1 %24, label %25, label %41

25:                                               ; preds = %21
  %26 = load i8*, i8** %10, align 8
  %27 = load i32, i32* %3, align 4
  %28 = sext i32 %27 to i64
  %29 = getelementptr inbounds i8, i8* %26, i64 %28
  %30 = load i32, i32* %6, align 4
  %31 = getelementptr inbounds [50 x i8], [50 x i8]* %8, i64 0, i64 0
  %32 = call i32 @pd(i8* %29, i32 %30, i8* %31)
  %33 = icmp ne i32 %32, 0
  br i1 %33, label %34, label %37

34:                                               ; preds = %25
  %35 = load i32, i32* %3, align 4
  %36 = call i32 (i8*, ...) @printf(i8* getelementptr inbounds ([3 x i8], [3 x i8]* @.str.1, i64 0, i64 0), i32 %35)
  br label %41

37:                                               ; preds = %25
  br label %38

38:                                               ; preds = %37
  %39 = load i32, i32* %3, align 4
  %40 = add nsw i32 %39, 1
  store i32 %40, i32* %3, align 4
  br label %21

41:                                               ; preds = %34, %21
  %42 = load i32, i32* %1, align 4
  ret i32 %42
}

declare dso_local i32 @__isoc99_scanf(i8*, ...) #1

; Function Attrs: nounwind readonly
declare dso_local i64 @strlen(i8*) #2

declare dso_local i32 @printf(i8*, ...) #1


!llvm.module.flags = !{!0}
!llvm.ident = !{!1}

!0 = !{i32 1, !"wchar_size", i32 4}
!1 = !{!"clang version 10.0.0-4ubuntu1 "}
