; ModuleID = 'source-C-CXX/44/1433.c'
source_filename = "source-C-CXX/44/1433.c"
target datalayout = "e-m:e-p270:32:32-p271:32:32-p272:64:64-i64:64-f80:128-n8:16:32:64-S128"
target triple = "x86_64-pc-linux-gnu"

@.str = private unnamed_addr constant [5 x i8] c"%s%s\00", align 1
@.str.1 = private unnamed_addr constant [3 x i8] c"%d\00", align 1

; Function Attrs: nofree norecurse nosync nounwind readonly sspstrong uwtable
define dso_local i32 @pd(i8* nocapture readonly %0, i32 %1, i8* nocapture readonly %2) local_unnamed_addr #0 {
  %4 = icmp sgt i32 %1, 0
  br i1 %4, label %5, label %17

5:                                                ; preds = %3
  %6 = zext i32 %1 to i64
  br label %9

7:                                                ; preds = %9
  %8 = icmp eq i64 %16, %6
  br i1 %8, label %17, label %9, !llvm.loop !5

9:                                                ; preds = %5, %7
  %10 = phi i64 [ 0, %5 ], [ %16, %7 ]
  %11 = getelementptr inbounds i8, i8* %2, i64 %10
  %12 = load i8, i8* %11, align 1, !tbaa !7
  %13 = getelementptr inbounds i8, i8* %0, i64 %10
  %14 = load i8, i8* %13, align 1, !tbaa !7
  %15 = icmp eq i8 %12, %14
  %16 = add nuw nsw i64 %10, 1
  br i1 %15, label %7, label %17

17:                                               ; preds = %7, %9, %3
  %18 = phi i32 [ 1, %3 ], [ 0, %9 ], [ 1, %7 ]
  ret i32 %18
}

; Function Attrs: argmemonly mustprogress nofree nosync nounwind willreturn
declare void @llvm.lifetime.start.p0i8(i64 immarg, i8* nocapture) #1

; Function Attrs: argmemonly mustprogress nofree nosync nounwind willreturn
declare void @llvm.lifetime.end.p0i8(i64 immarg, i8* nocapture) #1

; Function Attrs: nofree nounwind sspstrong uwtable
define dso_local i32 @main() local_unnamed_addr #2 {
  %1 = alloca [50 x i8], align 16
  %2 = alloca [50 x i8], align 16
  %3 = getelementptr inbounds [50 x i8], [50 x i8]* %1, i64 0, i64 0
  call void @llvm.lifetime.start.p0i8(i64 50, i8* nonnull %3) #5
  %4 = getelementptr inbounds [50 x i8], [50 x i8]* %2, i64 0, i64 0
  call void @llvm.lifetime.start.p0i8(i64 50, i8* nonnull %4) #5
  %5 = call i32 (i8*, ...) @__isoc99_scanf(i8* getelementptr inbounds ([5 x i8], [5 x i8]* @.str, i64 0, i64 0), i8* nonnull %3, i8* nonnull %4)
  %6 = call i64 @strlen(i8* noundef nonnull %4) #6
  %7 = trunc i64 %6 to i32
  %8 = call i64 @strlen(i8* noundef nonnull %3) #6
  %9 = and i64 %8, 4294967295
  %10 = icmp sgt i32 %7, 0
  br i1 %10, label %11, label %37

11:                                               ; preds = %0
  %12 = trunc i64 %8 to i32
  %13 = icmp sgt i32 %12, 0
  br i1 %13, label %14, label %34

14:                                               ; preds = %11
  %15 = and i64 %6, 4294967295
  br label %16

16:                                               ; preds = %14, %27
  %17 = phi i64 [ 0, %14 ], [ %28, %27 ]
  %18 = getelementptr inbounds [50 x i8], [50 x i8]* %2, i64 0, i64 %17
  br label %19

19:                                               ; preds = %30, %16
  %20 = phi i64 [ 0, %16 ], [ %26, %30 ]
  %21 = getelementptr inbounds [50 x i8], [50 x i8]* %1, i64 0, i64 %20
  %22 = load i8, i8* %21, align 1, !tbaa !7
  %23 = getelementptr inbounds i8, i8* %18, i64 %20
  %24 = load i8, i8* %23, align 1, !tbaa !7
  %25 = icmp eq i8 %22, %24
  %26 = add nuw nsw i64 %20, 1
  br i1 %25, label %30, label %27

27:                                               ; preds = %19
  %28 = add nuw nsw i64 %17, 1
  %29 = icmp eq i64 %28, %15
  br i1 %29, label %37, label %16, !llvm.loop !10

30:                                               ; preds = %19
  %31 = icmp eq i64 %26, %9
  br i1 %31, label %32, label %19, !llvm.loop !5

32:                                               ; preds = %30
  %33 = trunc i64 %17 to i32
  br label %34

34:                                               ; preds = %11, %32
  %35 = phi i32 [ %33, %32 ], [ 0, %11 ]
  %36 = call i32 (i8*, ...) @printf(i8* nonnull dereferenceable(1) getelementptr inbounds ([3 x i8], [3 x i8]* @.str.1, i64 0, i64 0), i32 %35)
  br label %37

37:                                               ; preds = %27, %0, %34
  call void @llvm.lifetime.end.p0i8(i64 50, i8* nonnull %4) #5
  call void @llvm.lifetime.end.p0i8(i64 50, i8* nonnull %3) #5
  ret i32 0
}

; Function Attrs: nofree nounwind
declare noundef i32 @__isoc99_scanf(i8* nocapture noundef readonly, ...) local_unnamed_addr #3

; Function Attrs: argmemonly mustprogress nofree nounwind readonly willreturn
declare i64 @strlen(i8* nocapture) local_unnamed_addr #4

; Function Attrs: nofree nounwind
declare noundef i32 @printf(i8* nocapture noundef readonly, ...) local_unnamed_addr #3


!llvm.module.flags = !{!0, !1, !2, !3}
!llvm.ident = !{!4}

!0 = !{i32 1, !"wchar_size", i32 4}
!1 = !{i32 7, !"PIC Level", i32 2}
!2 = !{i32 7, !"PIE Level", i32 2}
!3 = !{i32 7, !"uwtable", i32 1}
!4 = !{!"clang version 13.0.0"}
!5 = distinct !{!5, !6}
!6 = !{!"llvm.loop.mustprogress"}
!7 = !{!8, !8, i64 0}
!8 = !{!"omnipotent char", !9, i64 0}
!9 = !{!"Simple C/C++ TBAA"}
!10 = distinct !{!10, !6}
